target datalayout = "e-m:e-p270:32:32-p271:32:32-p272:64:64-i64:64-i128:128-f80:128-n8:16:32:64-S128"
target triple = "x86_64-pc-linux-gnu"

%struct.sockaddr_un = type { i16, [108 x i8] }
%struct.optstruct = type { ptr, ptr, ptr, i64, i32, i32, i32, i32, ptr, ptr, ptr }
%struct.addrinfo = type { i32, i32, i32, i32, i32, ptr, ptr, ptr }
%union.__CONST_SOCKADDR_ARG = type { ptr }
%struct.sockaddr_in = type { i16, i16, %struct.in_addr, [8 x i8] }
%struct.in_addr = type { i32 }
%struct.sockaddr_in6 = type { i16, i16, i32, %struct.in6_addr, i32 }
%struct.in6_addr = type { %union.anon }
%union.anon = type { [4 x i32] }

@clamdopts = external global ptr, align 8
@.str.21 = private unnamed_addr constant [12 x i8] c"LocalSocket\00", align 1
@nixsock = external global %struct.sockaddr_un, align 2
@.str.33 = private unnamed_addr constant [10 x i8] c"TCPSocket\00", align 1
@.str.34 = private unnamed_addr constant [5 x i8] c"%lld\00", align 1
@.str.35 = private unnamed_addr constant [8 x i8] c"TCPAddr\00", align 1
@.str.36 = private unnamed_addr constant [4 x i8] c"any\00", align 1
@.str.37 = private unnamed_addr constant [33 x i8] c"Can't lookup clamd hostname: %s\0A\00", align 1
@.str.38 = private unnamed_addr constant [35 x i8] c"isremote: socket() returning: %s.\0A\00", align 1

; Function Attrs: nounwind uwtable
define internal i32 @isremote(ptr noundef %0) #0 {
  %2 = alloca i32, align 4
  %3 = alloca ptr, align 8
  %4 = alloca i32, align 4
  %5 = alloca i32, align 4
  %6 = alloca ptr, align 8
  %7 = alloca ptr, align 8
  %8 = alloca [10 x i8], align 1
  %9 = alloca %struct.addrinfo, align 8
  %10 = alloca ptr, align 8
  %11 = alloca ptr, align 8
  %12 = alloca i32, align 4
  %13 = alloca %union.__CONST_SOCKADDR_ARG, align 8
  store ptr %0, ptr %3, align 8
  %14 = load ptr, ptr @clamdopts, align 8
  %15 = call ptr @optget(ptr noundef %14, ptr noundef @.str.21)
  store ptr %15, ptr %6, align 8
  %16 = getelementptr inbounds %struct.optstruct, ptr %15, i32 0, i32 4
  %17 = load i32, ptr %16, align 8
  %18 = icmp ne i32 %17, 0
  br i1 %18, label %19, label %24

19:                                               ; preds = %1
  call void @llvm.memset.p0.i64(ptr align 2 @nixsock, i8 0, i64 110, i1 false)
  store i16 1, ptr @nixsock, align 2
  %20 = load ptr, ptr %6, align 8
  %21 = getelementptr inbounds %struct.optstruct, ptr %20, i32 0, i32 2
  %22 = load ptr, ptr %21, align 8
  %23 = call ptr @strncpy(ptr noundef getelementptr inbounds (%struct.sockaddr_un, ptr @nixsock, i32 0, i32 1), ptr noundef %22, i64 noundef 108) #9
  store i8 0, ptr getelementptr inbounds (%struct.sockaddr_un, ptr @nixsock, i32 0, i32 1, i64 107), align 1
  store i32 0, ptr %2, align 4
  br label %153

24:                                               ; preds = %1
  %25 = load ptr, ptr @clamdopts, align 8
  %26 = call ptr @optget(ptr noundef %25, ptr noundef @.str.33)
  store ptr %26, ptr %6, align 8
  %27 = getelementptr inbounds %struct.optstruct, ptr %26, i32 0, i32 4
  %28 = load i32, ptr %27, align 8
  %29 = icmp ne i32 %28, 0
  br i1 %29, label %31, label %30

30:                                               ; preds = %24
  store i32 0, ptr %2, align 4
  br label %153

31:                                               ; preds = %24
  %32 = getelementptr inbounds [10 x i8], ptr %8, i64 0, i64 0
  %33 = load ptr, ptr @clamdopts, align 8
  %34 = call ptr @optget(ptr noundef %33, ptr noundef @.str.33)
  %35 = getelementptr inbounds %struct.optstruct, ptr %34, i32 0, i32 3
  %36 = load i64, ptr %35, align 8
  %37 = call i32 (ptr, i64, ptr, ...) @snprintf(ptr noundef %32, i64 noundef 10, ptr noundef @.str.34, i64 noundef %36) #9
  %38 = load ptr, ptr @clamdopts, align 8
  %39 = call ptr @optget(ptr noundef %38, ptr noundef @.str.35)
  store ptr %39, ptr %6, align 8
  br label %40

40:                                               ; preds = %147, %69, %31
  %41 = load ptr, ptr %6, align 8
  %42 = icmp ne ptr %41, null
  br i1 %42, label %43, label %152

43:                                               ; preds = %40
  store ptr null, ptr %7, align 8
  %44 = load ptr, ptr %6, align 8
  %45 = getelementptr inbounds %struct.optstruct, ptr %44, i32 0, i32 2
  %46 = load ptr, ptr %45, align 8
  %47 = icmp ne ptr %46, null
  br i1 %47, label %48, label %61

48:                                               ; preds = %43
  %49 = load ptr, ptr %6, align 8
  %50 = getelementptr inbounds %struct.optstruct, ptr %49, i32 0, i32 2
  %51 = load ptr, ptr %50, align 8
  %52 = call i32 @strcmp(ptr noundef %51, ptr noundef @.str.36) #8
  %53 = icmp ne i32 %52, 0
  br i1 %53, label %55, label %54

54:                                               ; preds = %48
  br label %59

55:                                               ; preds = %48
  %56 = load ptr, ptr %6, align 8
  %57 = getelementptr inbounds %struct.optstruct, ptr %56, i32 0, i32 2
  %58 = load ptr, ptr %57, align 8
  br label %59

59:                                               ; preds = %55, %54
  %60 = phi ptr [ null, %54 ], [ %58, %55 ]
  store ptr %60, ptr %7, align 8
  br label %61

61:                                               ; preds = %59, %43
  call void @llvm.memset.p0.i64(ptr align 8 %9, i8 0, i64 48, i1 false)
  %62 = getelementptr inbounds %struct.addrinfo, ptr %9, i32 0, i32 1
  store i32 0, ptr %62, align 4
  %63 = getelementptr inbounds %struct.addrinfo, ptr %9, i32 0, i32 2
  store i32 1, ptr %63, align 8
  %64 = getelementptr inbounds %struct.addrinfo, ptr %9, i32 0, i32 0
  store i32 1, ptr %64, align 8
  %65 = load ptr, ptr %7, align 8
  %66 = getelementptr inbounds [10 x i8], ptr %8, i64 0, i64 0
  %67 = call i32 @getaddrinfo(ptr noundef %65, ptr noundef %66, ptr noundef %9, ptr noundef %10)
  store i32 %67, ptr %12, align 4
  %68 = icmp ne i32 %67, 0
  br i1 %68, label %69, label %76

69:                                               ; preds = %61
  %70 = load i32, ptr %12, align 4
  %71 = call ptr @gai_strerror(i32 noundef %70) #9
  %72 = call i32 (i32, ptr, ...) @logg(i32 noundef 5, ptr noundef @.str.37, ptr noundef %71)
  %73 = load ptr, ptr %6, align 8
  %74 = getelementptr inbounds %struct.optstruct, ptr %73, i32 0, i32 8
  %75 = load ptr, ptr %74, align 8
  store ptr %75, ptr %6, align 8
  br label %40

76:                                               ; preds = %61
  %77 = load ptr, ptr %10, align 8
  store ptr %77, ptr %11, align 8
  br label %78

78:                                               ; preds = %143, %76
  %79 = load ptr, ptr %11, align 8
  %80 = icmp ne ptr %79, null
  br i1 %80, label %81, label %147

81:                                               ; preds = %78
  %82 = load ptr, ptr %11, align 8
  %83 = getelementptr inbounds %struct.addrinfo, ptr %82, i32 0, i32 1
  %84 = load i32, ptr %83, align 4
  %85 = load ptr, ptr %11, align 8
  %86 = getelementptr inbounds %struct.addrinfo, ptr %85, i32 0, i32 2
  %87 = load i32, ptr %86, align 8
  %88 = load ptr, ptr %11, align 8
  %89 = getelementptr inbounds %struct.addrinfo, ptr %88, i32 0, i32 3
  %90 = load i32, ptr %89, align 4
  %91 = call i32 @socket(i32 noundef %84, i32 noundef %87, i32 noundef %90) #9
  store i32 %91, ptr %4, align 4
  %92 = icmp slt i32 %91, 0
  br i1 %92, label %93, label %98

93:                                               ; preds = %81
  %94 = call ptr @__errno_location() #10
  %95 = load i32, ptr %94, align 4
  %96 = call ptr @strerror(i32 noundef %95) #9
  %97 = call i32 (i32, ptr, ...) @logg(i32 noundef 0, ptr noundef @.str.38, ptr noundef %96)
  br label %143

98:                                               ; preds = %81
  %99 = load ptr, ptr %11, align 8
  %100 = getelementptr inbounds %struct.addrinfo, ptr %99, i32 0, i32 1
  %101 = load i32, ptr %100, align 4
  switch i32 %101, label %114 [
    i32 2, label %102
    i32 10, label %108
  ]

102:                                              ; preds = %98
  %103 = call zeroext i16 @htons(i16 noundef zeroext 0) #10
  %104 = load ptr, ptr %11, align 8
  %105 = getelementptr inbounds %struct.addrinfo, ptr %104, i32 0, i32 5
  %106 = load ptr, ptr %105, align 8
  %107 = getelementptr inbounds %struct.sockaddr_in, ptr %106, i32 0, i32 1
  store i16 %103, ptr %107, align 2
  br label %115

108:                                              ; preds = %98
  %109 = call zeroext i16 @htons(i16 noundef zeroext 0) #10
  %110 = load ptr, ptr %11, align 8
  %111 = getelementptr inbounds %struct.addrinfo, ptr %110, i32 0, i32 5
  %112 = load ptr, ptr %111, align 8
  %113 = getelementptr inbounds %struct.sockaddr_in6, ptr %112, i32 0, i32 1
  store i16 %109, ptr %113, align 2
  br label %115

114:                                              ; preds = %98
  br label %115

115:                                              ; preds = %114, %108, %102
  %116 = load i32, ptr %4, align 4
  %117 = load ptr, ptr %11, align 8
  %118 = getelementptr inbounds %struct.addrinfo, ptr %117, i32 0, i32 5
  %119 = load ptr, ptr %118, align 8
  store ptr %119, ptr %13, align 8
  %120 = load ptr, ptr %11, align 8
  %121 = getelementptr inbounds %struct.addrinfo, ptr %120, i32 0, i32 4
  %122 = load i32, ptr %121, align 8
  %123 = getelementptr inbounds %union.__CONST_SOCKADDR_ARG, ptr %13, i32 0, i32 0
  %124 = load ptr, ptr %123, align 8
  %125 = call i32 @bind(i32 noundef %116, ptr %124, i32 noundef %122) #9
  store i32 %125, ptr %5, align 4
  %126 = load i32, ptr %5, align 4
  %127 = icmp ne i32 %126, 0
  br i1 %127, label %128, label %140

128:                                              ; preds = %115
  %129 = call ptr @__errno_location() #10
  %130 = load i32, ptr %129, align 4
  %131 = icmp eq i32 %130, 98
  br i1 %131, label %132, label %136

132:                                              ; preds = %128
  %133 = load i32, ptr %4, align 4
  %134 = call i32 @close(i32 noundef %133)
  %135 = load ptr, ptr %10, align 8
  call void @freeaddrinfo(ptr noundef %135) #9
  store i32 0, ptr %2, align 4
  br label %153

136:                                              ; preds = %128
  %137 = load i32, ptr %4, align 4
  %138 = call i32 @close(i32 noundef %137)
  %139 = load ptr, ptr %10, align 8
  call void @freeaddrinfo(ptr noundef %139) #9
  store i32 1, ptr %2, align 4
  br label %153

140:                                              ; preds = %115
  %141 = load i32, ptr %4, align 4
  %142 = call i32 @close(i32 noundef %141)
  br label %143

143:                                              ; preds = %140, %93
  %144 = load ptr, ptr %11, align 8
  %145 = getelementptr inbounds %struct.addrinfo, ptr %144, i32 0, i32 7
  %146 = load ptr, ptr %145, align 8
  store ptr %146, ptr %11, align 8
  br label %78

147:                                              ; preds = %78
  %148 = load ptr, ptr %10, align 8
  call void @freeaddrinfo(ptr noundef %148) #9
  %149 = load ptr, ptr %6, align 8
  %150 = getelementptr inbounds %struct.optstruct, ptr %149, i32 0, i32 8
  %151 = load ptr, ptr %150, align 8
  store ptr %151, ptr %6, align 8
  br label %40

152:                                              ; preds = %40
  store i32 0, ptr %2, align 4
  br label %153

153:                                              ; preds = %152, %136, %132, %30, %19
  %154 = load i32, ptr %2, align 4
  ret i32 %154
}