; Function Attrs: nounwind uwtable
define internal fastcc i32 @isremote() unnamed_addr #0 {
  %1 = alloca [10 x i8], align 1
  %2 = alloca %struct.addrinfo, align 8
  %3 = alloca ptr, align 8
  %4 = load ptr, ptr @clamdopts, align 8
  %5 = tail call ptr @optget(ptr noundef %4, ptr noundef nonnull @.str.21) #14
  %6 = getelementptr inbounds i8, ptr %5, i64 32
  %7 = load i32, ptr %6, align 8
  %.not = icmp eq i32 %7, 0
  br i1 %.not, label %12, label %8

8:                                                ; preds = %0
  tail call void @llvm.memset.p0.i64(ptr noundef nonnull align 2 dereferenceable(110) getelementptr inbounds (%struct.sockaddr_un, ptr @nixsock, i64 0, i32 1, i64 0), i8 0, i64 108, i1 false)
  store i16 1, ptr @nixsock, align 2
  %9 = getelementptr inbounds i8, ptr %5, i64 16
  %10 = load ptr, ptr %9, align 8
  %11 = tail call ptr @strncpy(ptr noundef nonnull dereferenceable(1) getelementptr inbounds (%struct.sockaddr_un, ptr @nixsock, i64 0, i32 1), ptr noundef nonnull dereferenceable(1) %10, i64 noundef 108) #14
  store i8 0, ptr getelementptr inbounds (%struct.sockaddr_un, ptr @nixsock, i64 0, i32 1, i64 107), align 1
  br label %.loopexit

12:                                               ; preds = %0
  %13 = load ptr, ptr @clamdopts, align 8
  %14 = tail call ptr @optget(ptr noundef %13, ptr noundef nonnull @.str.33) #14
  %15 = getelementptr inbounds i8, ptr %14, i64 32
  %16 = load i32, ptr %15, align 8
  %.not30 = icmp eq i32 %16, 0
  br i1 %.not30, label %.loopexit, label %17

17:                                               ; preds = %12
  %18 = load ptr, ptr @clamdopts, align 8
  %19 = tail call ptr @optget(ptr noundef %18, ptr noundef nonnull @.str.33) #14
  %20 = getelementptr inbounds i8, ptr %19, i64 24
  %21 = load i64, ptr %20, align 8
  %22 = call i32 (ptr, i64, ptr, ...) @snprintf(ptr noundef nonnull dereferenceable(1) %1, i64 noundef 10, ptr noundef nonnull @.str.34, i64 noundef %21) #14
  %23 = load ptr, ptr @clamdopts, align 8
  %24 = tail call ptr @optget(ptr noundef %23, ptr noundef nonnull @.str.35) #14
  %.not314 = icmp eq ptr %24, null
  br i1 %.not314, label %.loopexit, label %.lr.ph7

.lr.ph7:                                          ; preds = %17
  %25 = getelementptr inbounds i8, ptr %2, i64 8
  br label %26

26:                                               ; preds = %.lr.ph7, %.backedge
  %.0245 = phi ptr [ %24, %.lr.ph7 ], [ %.024.be, %.backedge ]
  %27 = getelementptr inbounds i8, ptr %.0245, i64 16
  %28 = load ptr, ptr %27, align 8
  %.not32 = icmp eq ptr %28, null
  br i1 %.not32, label %31, label %29

29:                                               ; preds = %26
  %30 = call i32 @strcmp(ptr noundef nonnull dereferenceable(1) %28, ptr noundef nonnull dereferenceable(4) @.str.36) #15
  %.not33 = icmp eq i32 %30, 0
  %spec.select = select i1 %.not33, ptr null, ptr %28
  br label %31

31:                                               ; preds = %29, %26
  %.026 = phi ptr [ %spec.select, %29 ], [ null, %26 ]
  call void @llvm.memset.p0.i64(ptr noundef nonnull align 8 dereferenceable(48) %2, i8 0, i64 48, i1 false)
  store i32 1, ptr %25, align 8
  store i32 1, ptr %2, align 8
  %32 = call i32 @getaddrinfo(ptr noundef %.026, ptr noundef nonnull %1, ptr noundef nonnull %2, ptr noundef nonnull %3) #14
  %.not34 = icmp eq i32 %32, 0
  br i1 %.not34, label %.preheader, label %33

.preheader:                                       ; preds = %31
  %.0251 = load ptr, ptr %3, align 8
  %.not352 = icmp eq ptr %.0251, null
  br i1 %.not352, label %._crit_edge, label %.lr.ph

33:                                               ; preds = %31
  %34 = call ptr @gai_strerror(i32 noundef %32) #14
  %35 = call i32 (i32, ptr, ...) @logg(i32 noundef 5, ptr noundef nonnull @.str.37, ptr noundef %34) #14
  br label %.backedge

.backedge:                                        ; preds = %33, %._crit_edge
  %.024.be.in = getelementptr inbounds i8, ptr %.0245, i64 48
  %.024.be = load ptr, ptr %.024.be.in, align 8
  %.not31 = icmp eq ptr %.024.be, null
  br i1 %.not31, label %.loopexit, label %26

.lr.ph:                                           ; preds = %.preheader, %69
  %.0253 = phi ptr [ %.025, %69 ], [ %.0251, %.preheader ]
  %36 = getelementptr inbounds i8, ptr %.0253, i64 4
  %37 = load i32, ptr %36, align 4
  %38 = getelementptr inbounds i8, ptr %.0253, i64 8
  %39 = load i32, ptr %38, align 8
  %40 = getelementptr inbounds i8, ptr %.0253, i64 12
  %41 = load i32, ptr %40, align 4
  %42 = call i32 @socket(i32 noundef %37, i32 noundef %39, i32 noundef %41) #14
  %43 = icmp slt i32 %42, 0
  br i1 %43, label %44, label %49

44:                                               ; preds = %.lr.ph
  %45 = tail call ptr @__errno_location() #16
  %46 = load i32, ptr %45, align 4
  %47 = call ptr @strerror(i32 noundef %46) #14
  %48 = call i32 (i32, ptr, ...) @logg(i32 noundef 0, ptr noundef nonnull @.str.38, ptr noundef %47) #14
  br label %69

49:                                               ; preds = %.lr.ph
  %50 = load i32, ptr %36, align 4
  switch i32 %50, label %55 [
    i32 2, label %.sink.split
    i32 10, label %.sink.split
  ]

.sink.split:                                      ; preds = %49, %49
  %51 = call zeroext i16 @htons(i16 noundef zeroext 0) #16
  %52 = getelementptr inbounds i8, ptr %.0253, i64 24
  %53 = load ptr, ptr %52, align 8
  %54 = getelementptr inbounds i8, ptr %53, i64 2
  store i16 %51, ptr %54, align 2
  br label %55

55:                                               ; preds = %.sink.split, %49
  %56 = getelementptr inbounds i8, ptr %.0253, i64 24
  %57 = load ptr, ptr %56, align 8
  %58 = getelementptr inbounds i8, ptr %.0253, i64 16
  %59 = load i32, ptr %58, align 8
  %60 = call i32 @bind(i32 noundef %42, ptr %57, i32 noundef %59) #14
  %.not36 = icmp eq i32 %60, 0
  br i1 %.not36, label %67, label %61

61:                                               ; preds = %55
  %62 = tail call ptr @__errno_location() #16
  %63 = load i32, ptr %62, align 4
  %64 = icmp ne i32 %63, 98
  %65 = call i32 @close(i32 noundef %42) #14
  %66 = load ptr, ptr %3, align 8
  call void @freeaddrinfo(ptr noundef %66) #14
  %. = zext i1 %64 to i32
  br label %.loopexit

67:                                               ; preds = %55
  %68 = call i32 @close(i32 noundef %42) #14
  br label %69

69:                                               ; preds = %67, %44
  %70 = getelementptr inbounds i8, ptr %.0253, i64 40
  %.025 = load ptr, ptr %70, align 8
  %.not35 = icmp eq ptr %.025, null
  br i1 %.not35, label %._crit_edge.loopexit, label %.lr.ph

._crit_edge.loopexit:                             ; preds = %69
  %.pre = load ptr, ptr %3, align 8
  br label %._crit_edge

._crit_edge:                                      ; preds = %._crit_edge.loopexit, %.preheader
  %71 = phi ptr [ %.pre, %._crit_edge.loopexit ], [ null, %.preheader ]
  call void @freeaddrinfo(ptr noundef %71) #14
  br label %.backedge

.loopexit:                                        ; preds = %.backedge, %61, %17, %12, %8
  %.0 = phi i32 [ 0, %8 ], [ 0, %12 ], [ 0, %17 ], [ %., %61 ], [ 0, %.backedge ]
  ret i32 %.0
}